; Function Attrs: mustprogress uwtable
define noundef zeroext i1 @_ZN8facebook5velox6memory14MemoryPoolImpl31maybeIncrementReservationLockedEm(ptr noundef nonnull align 8 dereferenceable(480) %this, i64 noundef %size) local_unnamed_addr #0 align 2 personality ptr @__gxx_personality_v0 {
entry:
  %agg.tmp.i = alloca %"class.std::__exception_ptr::exception_ptr", align 8
  %parent_.i = getelementptr inbounds i8, ptr %this, i64 64
  %0 = load ptr, ptr %parent_.i, align 8
  %cmp.i.not.i = icmp eq ptr %0, null
  br i1 %cmp.i.not.i, label %if.then, label %if.end4

if.then:                                          ; preds = %entry
  call void @llvm.lifetime.start.p0(i64 8, ptr nonnull %agg.tmp.i)
  %vtable.i = load ptr, ptr %this, align 8
  %vfn.i = getelementptr inbounds i8, ptr %vtable.i, i64 352
  %1 = load ptr, ptr %vfn.i, align 8
  %call.i = tail call noundef zeroext i1 %1(ptr noundef nonnull align 8 dereferenceable(480) %this)
  br i1 %call.i, label %_ZNSt15__exception_ptr13exception_ptrD2Ev.exit.i, label %_ZNK8facebook5velox6memory14MemoryPoolImpl14checkIfAbortedEv.exit

_ZNSt15__exception_ptr13exception_ptrD2Ev.exit.i: ; preds = %if.then
  %abortError_.i = getelementptr inbounds i8, ptr %this, i64 96
  %2 = load ptr, ptr %abortError_.i, align 8
  %cmp.i.not.i3 = icmp eq ptr %2, null
  br i1 %cmp.i.not.i3, label %if.then3.i, label %_ZNSt15__exception_ptr13exception_ptrC2ERKS0_.exit.i

if.then3.i:                                       ; preds = %_ZNSt15__exception_ptr13exception_ptrD2Ev.exit.i
  tail call void @llvm.trap()
  unreachable

_ZNSt15__exception_ptr13exception_ptrC2ERKS0_.exit.i: ; preds = %_ZNSt15__exception_ptr13exception_ptrD2Ev.exit.i
  store ptr %2, ptr %agg.tmp.i, align 8
  call void @_ZNSt15__exception_ptr13exception_ptr9_M_addrefEv(ptr noundef nonnull align 8 dereferenceable(8) %agg.tmp.i) #26
  invoke void @_ZSt17rethrow_exceptionNSt15__exception_ptr13exception_ptrE(ptr noundef nonnull %agg.tmp.i) #29
          to label %invoke.cont.i unwind label %lpad.i

invoke.cont.i:                                    ; preds = %_ZNSt15__exception_ptr13exception_ptrC2ERKS0_.exit.i
  unreachable

lpad.i:                                           ; preds = %_ZNSt15__exception_ptr13exception_ptrC2ERKS0_.exit.i
  %3 = landingpad { ptr, i32 }
          cleanup
  %4 = load ptr, ptr %agg.tmp.i, align 8
  %tobool.not.i3.i = icmp eq ptr %4, null
  br i1 %tobool.not.i3.i, label %_ZNSt15__exception_ptr13exception_ptrD2Ev.exit5.i, label %if.then.i4.i

if.then.i4.i:                                     ; preds = %lpad.i
  call void @_ZNSt15__exception_ptr13exception_ptr10_M_releaseEv(ptr noundef nonnull align 8 dereferenceable(8) %agg.tmp.i) #26
  br label %_ZNSt15__exception_ptr13exception_ptrD2Ev.exit5.i

_ZNSt15__exception_ptr13exception_ptrD2Ev.exit5.i: ; preds = %if.then.i4.i, %lpad.i
  resume { ptr, i32 } %3

_ZNK8facebook5velox6memory14MemoryPoolImpl14checkIfAbortedEv.exit: ; preds = %if.then
  call void @llvm.lifetime.end.p0(i64 8, ptr nonnull %agg.tmp.i)
  %reservationBytes_ = getelementptr inbounds i8, ptr %this, i64 304
  %5 = load i64, ptr %reservationBytes_, align 8
  %add = add i64 %5, %size
  %capacity_ = getelementptr inbounds i8, ptr %this, i64 296
  %6 = load i64, ptr %capacity_, align 8
  %cmp = icmp ugt i64 %add, %6
  br i1 %cmp, label %land.rhs, label %if.end4

land.rhs:                                         ; preds = %_ZNK8facebook5velox6memory14MemoryPoolImpl14checkIfAbortedEv.exit
  %call2 = tail call noundef zeroext i1 @_ZN8facebook5velox6memory22underMemoryArbitrationEv()
  br i1 %call2, label %if.end4, label %return

if.end4:                                          ; preds = %land.rhs, %_ZNK8facebook5velox6memory14MemoryPoolImpl14checkIfAbortedEv.exit, %entry
  %reservationBytes_5 = getelementptr inbounds i8, ptr %this, i64 304
  %7 = load i64, ptr %reservationBytes_5, align 8
  %add6 = add i64 %7, %size
  store i64 %add6, ptr %reservationBytes_5, align 8
  %kind_.i = getelementptr inbounds i8, ptr %this, i64 56
  %8 = load i32, ptr %kind_.i, align 8
  %cmp.i = icmp eq i32 %8, 0
  br i1 %cmp.i, label %return, label %if.then8

if.then8:                                         ; preds = %if.end4
  %cumulativeBytes_ = getelementptr inbounds i8, ptr %this, i64 336
  %9 = load i64, ptr %cumulativeBytes_, align 8
  %add9 = add i64 %9, %size
  store i64 %add9, ptr %cumulativeBytes_, align 8
  %peakBytes_.i = getelementptr inbounds i8, ptr %this, i64 328
  %10 = load i64, ptr %peakBytes_.i, align 8
  %.sroa.speculated = tail call i64 @llvm.smax.i64(i64 %10, i64 %add6)
  store i64 %.sroa.speculated, ptr %peakBytes_.i, align 8
  br label %return

return:                                           ; preds = %if.end4, %if.then8, %land.rhs
  %retval.0 = phi i1 [ false, %land.rhs ], [ true, %if.then8 ], [ true, %if.end4 ]
  ret i1 %retval.0
}